target datalayout = "e-m:e-p270:32:32-p271:32:32-p272:64:64-i64:64-i128:128-f80:128-n8:16:32:64-S128"
target triple = "x86_64-pc-linux-gnu"

%struct.ARKodeMRIStepMemRec = type { ptr, ptr, i32, i32, i32, i32, i32, ptr, ptr, i32, i32, i32, ptr, i32, i32, i32, i32, i32, ptr, ptr, ptr, ptr, ptr, ptr, ptr, i32, ptr, i32, ptr, double, double, double, double, i32, double, double, double, double, double, double, i32, i64, i32, i32, i32, ptr, ptr, ptr, ptr, ptr, ptr, ptr, ptr, ptr, double, double, double, i64, i64, i64, i64, i64, i64, i32, i32, i32, double, double, ptr, i32, ptr, ptr }
%struct.ARKodeMemRec = type { ptr, double, ptr, i32, i32, double, double, ptr, i32, double, ptr, i32, i32, ptr, ptr, i32, ptr, ptr, i32, ptr, ptr, ptr, ptr, ptr, ptr, ptr, ptr, ptr, ptr, ptr, ptr, ptr, ptr, ptr, i32, ptr, ptr, i32, ptr, i32, ptr, ptr, ptr, ptr, ptr, ptr, ptr, ptr, ptr, ptr, ptr, ptr, ptr, ptr, ptr, ptr, ptr, ptr, ptr, ptr, ptr, ptr, ptr, ptr, ptr, ptr, i32, ptr, ptr, ptr, ptr, ptr, ptr, ptr, i32, ptr, ptr, ptr, i32, ptr, ptr, ptr, ptr, ptr, ptr, ptr, i32, i32, i32, i32, double, double, double, double, double, double, double, double, double, double, i32, ptr, i64, i32, i32, i32, i32, i64, i64, i32, i64, i64, i64, i64, i64, i64, i64, double, double, double, double, double, i32, double, double, i32, i32, i32, i32, i32, i32, i32, i32, ptr, i32, ptr, ptr, ptr, ptr, i32, i32, i32 }
%struct.ARKodeHAdaptMemRec = type { double, double, double, double, i32, double, double, double, double, double, double, i32, i32, i32, i32, ptr, i32, ptr, ptr, i64, i64 }

@.str = private unnamed_addr constant [126 x i8] c"generated/home/dtcxzyw/WorkSpace/Projects/compilers/llvm-opt-benchmark/bench/sundials/sundials/src/arkode/arkode_mristep_io.c\00", align 1
@__func__.mriStep_SetDefaults = private unnamed_addr constant [20 x i8] c"mriStep_SetDefaults\00", align 1
@.str.4 = private unnamed_addr constant [35 x i8] c"SUNAdaptController_Destroy failure\00", align 1
@.str.5 = private unnamed_addr constant [40 x i8] c"SUNAdaptController_I allocation failure\00", align 1

; Function Attrs: nounwind uwtable
define i32 @mriStep_SetDefaults(ptr noundef %0) #0 {
  %2 = alloca i32, align 4
  %3 = alloca ptr, align 8
  %4 = alloca ptr, align 8
  %5 = alloca i64, align 8
  %6 = alloca i64, align 8
  %7 = alloca i64, align 8
  %8 = alloca i64, align 8
  %9 = alloca i32, align 4
  %10 = alloca i32, align 4
  store ptr %0, ptr %3, align 8, !tbaa !11
  call void @llvm.lifetime.start.p0(i64 8, ptr %4) #4
  call void @llvm.lifetime.start.p0(i64 8, ptr %5) #4
  call void @llvm.lifetime.start.p0(i64 8, ptr %6) #4
  call void @llvm.lifetime.start.p0(i64 8, ptr %7) #4
  call void @llvm.lifetime.start.p0(i64 8, ptr %8) #4
  call void @llvm.lifetime.start.p0(i64 4, ptr %9) #4
  %11 = load ptr, ptr %3, align 8, !tbaa !11
  %12 = call i32 @mriStep_AccessStepMem(ptr noundef %11, ptr noundef @__func__.mriStep_SetDefaults, ptr noundef %4)
  store i32 %12, ptr %9, align 4, !tbaa !9
  %13 = load i32, ptr %9, align 4, !tbaa !9
  %14 = icmp ne i32 %13, 0
  br i1 %14, label %15, label %17

15:                                               ; preds = %1
  %16 = load i32, ptr %9, align 4, !tbaa !9
  store i32 %16, ptr %2, align 4
  store i32 1, ptr %10, align 4
  br label %177

17:                                               ; preds = %1
  %18 = load ptr, ptr %4, align 8, !tbaa !13
  %19 = getelementptr inbounds nuw %struct.ARKodeMRIStepMemRec, ptr %18, i32 0, i32 13
  store i32 3, ptr %19, align 8, !tbaa !25
  %20 = load ptr, ptr %4, align 8, !tbaa !13
  %21 = getelementptr inbounds nuw %struct.ARKodeMRIStepMemRec, ptr %20, i32 0, i32 14
  store i32 0, ptr %21, align 4, !tbaa !26
  %22 = load ptr, ptr %4, align 8, !tbaa !13
  %23 = getelementptr inbounds nuw %struct.ARKodeMRIStepMemRec, ptr %22, i32 0, i32 33
  store i32 0, ptr %23, align 8, !tbaa !60
  %24 = load ptr, ptr %4, align 8, !tbaa !13
  %25 = getelementptr inbounds nuw %struct.ARKodeMRIStepMemRec, ptr %24, i32 0, i32 2
  store i32 0, ptr %25, align 8, !tbaa !61
  %26 = load ptr, ptr %4, align 8, !tbaa !13
  %27 = getelementptr inbounds nuw %struct.ARKodeMRIStepMemRec, ptr %26, i32 0, i32 3
  store i32 1, ptr %27, align 4, !tbaa !62
  %28 = load ptr, ptr %4, align 8, !tbaa !13
  %29 = getelementptr inbounds nuw %struct.ARKodeMRIStepMemRec, ptr %28, i32 0, i32 6
  store i32 0, ptr %29, align 8, !tbaa !63
  %30 = load ptr, ptr %4, align 8, !tbaa !13
  %31 = getelementptr inbounds nuw %struct.ARKodeMRIStepMemRec, ptr %30, i32 0, i32 42
  store i32 3, ptr %31, align 8, !tbaa !64
  %32 = load ptr, ptr %4, align 8, !tbaa !13
  %33 = getelementptr inbounds nuw %struct.ARKodeMRIStepMemRec, ptr %32, i32 0, i32 39
  store double 1.000000e-01, ptr %33, align 8, !tbaa !65
  %34 = load ptr, ptr %4, align 8, !tbaa !13
  %35 = getelementptr inbounds nuw %struct.ARKodeMRIStepMemRec, ptr %34, i32 0, i32 34
  store double 3.000000e-01, ptr %35, align 8, !tbaa !66
  %36 = load ptr, ptr %4, align 8, !tbaa !13
  %37 = getelementptr inbounds nuw %struct.ARKodeMRIStepMemRec, ptr %36, i32 0, i32 35
  store double 2.300000e+00, ptr %37, align 8, !tbaa !67
  %38 = load ptr, ptr %4, align 8, !tbaa !13
  %39 = getelementptr inbounds nuw %struct.ARKodeMRIStepMemRec, ptr %38, i32 0, i32 32
  store double 2.000000e-01, ptr %39, align 8, !tbaa !68
  %40 = load ptr, ptr %4, align 8, !tbaa !13
  %41 = getelementptr inbounds nuw %struct.ARKodeMRIStepMemRec, ptr %40, i32 0, i32 40
  store i32 20, ptr %41, align 8, !tbaa !69
  %42 = load ptr, ptr %4, align 8, !tbaa !13
  %43 = getelementptr inbounds nuw %struct.ARKodeMRIStepMemRec, ptr %42, i32 0, i32 15
  store i32 0, ptr %43, align 8, !tbaa !15
  %44 = load ptr, ptr %4, align 8, !tbaa !13
  %45 = getelementptr inbounds nuw %struct.ARKodeMRIStepMemRec, ptr %44, i32 0, i32 25
  store i32 0, ptr %45, align 8, !tbaa !70
  %46 = load ptr, ptr %4, align 8, !tbaa !13
  %47 = getelementptr inbounds nuw %struct.ARKodeMRIStepMemRec, ptr %46, i32 0, i32 44
  store i32 0, ptr %47, align 8, !tbaa !71
  %48 = load ptr, ptr %4, align 8, !tbaa !13
  %49 = getelementptr inbounds nuw %struct.ARKodeMRIStepMemRec, ptr %48, i32 0, i32 43
  store i32 0, ptr %49, align 4, !tbaa !72
  %50 = load ptr, ptr %4, align 8, !tbaa !13
  %51 = getelementptr inbounds nuw %struct.ARKodeMRIStepMemRec, ptr %50, i32 0, i32 45
  store ptr null, ptr %51, align 8, !tbaa !73
  %52 = load ptr, ptr %4, align 8, !tbaa !13
  %53 = getelementptr inbounds nuw %struct.ARKodeMRIStepMemRec, ptr %52, i32 0, i32 26
  %54 = load ptr, ptr %53, align 8, !tbaa !74
  %55 = icmp ne ptr %54, null
  br i1 %55, label %56, label %66

56:                                               ; preds = %17
  %57 = load ptr, ptr %4, align 8, !tbaa !13
  %58 = getelementptr inbounds nuw %struct.ARKodeMRIStepMemRec, ptr %57, i32 0, i32 27
  %59 = load i32, ptr %58, align 8, !tbaa !75
  %60 = icmp ne i32 %59, 0
  br i1 %60, label %61, label %66

61:                                               ; preds = %56
  %62 = load ptr, ptr %4, align 8, !tbaa !13
  %63 = getelementptr inbounds nuw %struct.ARKodeMRIStepMemRec, ptr %62, i32 0, i32 26
  %64 = load ptr, ptr %63, align 8, !tbaa !74
  %65 = call i32 @SUNNonlinSolFree(ptr noundef %64)
  br label %66

66:                                               ; preds = %61, %56, %17
  %67 = load ptr, ptr %4, align 8, !tbaa !13
  %68 = getelementptr inbounds nuw %struct.ARKodeMRIStepMemRec, ptr %67, i32 0, i32 26
  store ptr null, ptr %68, align 8, !tbaa !74
  %69 = load ptr, ptr %4, align 8, !tbaa !13
  %70 = getelementptr inbounds nuw %struct.ARKodeMRIStepMemRec, ptr %69, i32 0, i32 12
  %71 = load ptr, ptr %70, align 8, !tbaa !27
  %72 = icmp ne ptr %71, null
  br i1 %72, label %73, label %90

73:                                               ; preds = %66
  %74 = load ptr, ptr %4, align 8, !tbaa !13
  %75 = getelementptr inbounds nuw %struct.ARKodeMRIStepMemRec, ptr %74, i32 0, i32 12
  %76 = load ptr, ptr %75, align 8, !tbaa !27
  call void @MRIStepCoupling_Space(ptr noundef %76, ptr noundef %6, ptr noundef %5)
  %77 = load i64, ptr %5, align 8, !tbaa !28
  %78 = load ptr, ptr %3, align 8, !tbaa !11
  %79 = getelementptr inbounds nuw %struct.ARKodeMemRec, ptr %78, i32 0, i32 115
  %80 = load i64, ptr %79, align 8, !tbaa !36
  %81 = sub nsw i64 %80, %77
  store i64 %81, ptr %79, align 8, !tbaa !36
  %82 = load i64, ptr %6, align 8, !tbaa !28
  %83 = load ptr, ptr %3, align 8, !tbaa !11
  %84 = getelementptr inbounds nuw %struct.ARKodeMemRec, ptr %83, i32 0, i32 116
  %85 = load i64, ptr %84, align 8, !tbaa !29
  %86 = sub nsw i64 %85, %82
  store i64 %86, ptr %84, align 8, !tbaa !29
  %87 = load ptr, ptr %4, align 8, !tbaa !13
  %88 = getelementptr inbounds nuw %struct.ARKodeMRIStepMemRec, ptr %87, i32 0, i32 12
  %89 = load ptr, ptr %88, align 8, !tbaa !27
  call void @MRIStepCoupling_Free(ptr noundef %89)
  br label %90

90:                                               ; preds = %73, %66
  %91 = load ptr, ptr %4, align 8, !tbaa !13
  %92 = getelementptr inbounds nuw %struct.ARKodeMRIStepMemRec, ptr %91, i32 0, i32 12
  store ptr null, ptr %92, align 8, !tbaa !27
  %93 = load ptr, ptr %3, align 8, !tbaa !11
  %94 = getelementptr inbounds nuw %struct.ARKodeMemRec, ptr %93, i32 0, i32 101
  %95 = load ptr, ptr %94, align 8, !tbaa !76
  %96 = getelementptr inbounds nuw %struct.ARKodeHAdaptMemRec, ptr %95, i32 0, i32 16
  %97 = load i32, ptr %96, align 8, !tbaa !77
  %98 = icmp ne i32 %97, 0
  br i1 %98, label %99, label %135

99:                                               ; preds = %90
  %100 = load ptr, ptr %3, align 8, !tbaa !11
  %101 = getelementptr inbounds nuw %struct.ARKodeMemRec, ptr %100, i32 0, i32 101
  %102 = load ptr, ptr %101, align 8, !tbaa !76
  %103 = getelementptr inbounds nuw %struct.ARKodeHAdaptMemRec, ptr %102, i32 0, i32 15
  %104 = load ptr, ptr %103, align 8, !tbaa !79
  %105 = call i32 @SUNAdaptController_Space(ptr noundef %104, ptr noundef %7, ptr noundef %8)
  store i32 %105, ptr %9, align 4, !tbaa !9
  %106 = load i32, ptr %9, align 4, !tbaa !9
  %107 = icmp eq i32 %106, 0
  br i1 %107, label %108, label %119

108:                                              ; preds = %99
  %109 = load i64, ptr %8, align 8, !tbaa !28
  %110 = load ptr, ptr %3, align 8, !tbaa !11
  %111 = getelementptr inbounds nuw %struct.ARKodeMemRec, ptr %110, i32 0, i32 116
  %112 = load i64, ptr %111, align 8, !tbaa !29
  %113 = sub nsw i64 %112, %109
  store i64 %113, ptr %111, align 8, !tbaa !29
  %114 = load i64, ptr %7, align 8, !tbaa !28
  %115 = load ptr, ptr %3, align 8, !tbaa !11
  %116 = getelementptr inbounds nuw %struct.ARKodeMemRec, ptr %115, i32 0, i32 115
  %117 = load i64, ptr %116, align 8, !tbaa !36
  %118 = sub nsw i64 %117, %114
  store i64 %118, ptr %116, align 8, !tbaa !36
  br label %119

119:                                              ; preds = %108, %99
  %120 = load ptr, ptr %3, align 8, !tbaa !11
  %121 = getelementptr inbounds nuw %struct.ARKodeMemRec, ptr %120, i32 0, i32 101
  %122 = load ptr, ptr %121, align 8, !tbaa !76
  %123 = getelementptr inbounds nuw %struct.ARKodeHAdaptMemRec, ptr %122, i32 0, i32 15
  %124 = load ptr, ptr %123, align 8, !tbaa !79
  %125 = call i32 @SUNAdaptController_Destroy(ptr noundef %124)
  store i32 %125, ptr %9, align 4, !tbaa !9
  %126 = load ptr, ptr %3, align 8, !tbaa !11
  %127 = getelementptr inbounds nuw %struct.ARKodeMemRec, ptr %126, i32 0, i32 101
  %128 = load ptr, ptr %127, align 8, !tbaa !76
  %129 = getelementptr inbounds nuw %struct.ARKodeHAdaptMemRec, ptr %128, i32 0, i32 16
  store i32 0, ptr %129, align 8, !tbaa !77
  %130 = load i32, ptr %9, align 4, !tbaa !9
  %131 = icmp ne i32 %130, 0
  br i1 %131, label %132, label %134

132:                                              ; preds = %119
  %133 = load ptr, ptr %3, align 8, !tbaa !11
  call void (ptr, i32, i32, ptr, ptr, ptr, ...) @arkProcessError(ptr noundef %133, i32 noundef -20, i32 noundef 367, ptr noundef @__func__.mriStep_SetDefaults, ptr noundef @.str, ptr noundef @.str.4)
  store i32 -20, ptr %2, align 4
  store i32 1, ptr %10, align 4
  br label %177

134:                                              ; preds = %119
  br label %135

135:                                              ; preds = %134, %90
  %136 = load ptr, ptr %3, align 8, !tbaa !11
  %137 = getelementptr inbounds nuw %struct.ARKodeMemRec, ptr %136, i32 0, i32 0
  %138 = load ptr, ptr %137, align 8, !tbaa !80
  %139 = call ptr @SUNAdaptController_I(ptr noundef %138)
  %140 = load ptr, ptr %3, align 8, !tbaa !11
  %141 = getelementptr inbounds nuw %struct.ARKodeMemRec, ptr %140, i32 0, i32 101
  %142 = load ptr, ptr %141, align 8, !tbaa !76
  %143 = getelementptr inbounds nuw %struct.ARKodeHAdaptMemRec, ptr %142, i32 0, i32 15
  store ptr %139, ptr %143, align 8, !tbaa !79
  %144 = load ptr, ptr %3, align 8, !tbaa !11
  %145 = getelementptr inbounds nuw %struct.ARKodeMemRec, ptr %144, i32 0, i32 101
  %146 = load ptr, ptr %145, align 8, !tbaa !76
  %147 = getelementptr inbounds nuw %struct.ARKodeHAdaptMemRec, ptr %146, i32 0, i32 15
  %148 = load ptr, ptr %147, align 8, !tbaa !79
  %149 = icmp eq ptr %148, null
  br i1 %149, label %150, label %152

150:                                              ; preds = %135
  %151 = load ptr, ptr %3, align 8, !tbaa !11
  call void (ptr, i32, i32, ptr, ptr, ptr, ...) @arkProcessError(ptr noundef %151, i32 noundef -20, i32 noundef 375, ptr noundef @__func__.mriStep_SetDefaults, ptr noundef @.str, ptr noundef @.str.5)
  store i32 -20, ptr %2, align 4
  store i32 1, ptr %10, align 4
  br label %177

152:                                              ; preds = %135
  %153 = load ptr, ptr %3, align 8, !tbaa !11
  %154 = getelementptr inbounds nuw %struct.ARKodeMemRec, ptr %153, i32 0, i32 101
  %155 = load ptr, ptr %154, align 8, !tbaa !76
  %156 = getelementptr inbounds nuw %struct.ARKodeHAdaptMemRec, ptr %155, i32 0, i32 16
  store i32 1, ptr %156, align 8, !tbaa !77
  %157 = load ptr, ptr %3, align 8, !tbaa !11
  %158 = getelementptr inbounds nuw %struct.ARKodeMemRec, ptr %157, i32 0, i32 101
  %159 = load ptr, ptr %158, align 8, !tbaa !76
  %160 = getelementptr inbounds nuw %struct.ARKodeHAdaptMemRec, ptr %159, i32 0, i32 15
  %161 = load ptr, ptr %160, align 8, !tbaa !79
  %162 = call i32 @SUNAdaptController_Space(ptr noundef %161, ptr noundef %7, ptr noundef %8)
  store i32 %162, ptr %9, align 4, !tbaa !9
  %163 = load i32, ptr %9, align 4, !tbaa !9
  %164 = icmp eq i32 %163, 0
  br i1 %164, label %165, label %176

165:                                              ; preds = %152
  %166 = load i64, ptr %8, align 8, !tbaa !28
  %167 = load ptr, ptr %3, align 8, !tbaa !11
  %168 = getelementptr inbounds nuw %struct.ARKodeMemRec, ptr %167, i32 0, i32 116
  %169 = load i64, ptr %168, align 8, !tbaa !29
  %170 = add nsw i64 %169, %166
  store i64 %170, ptr %168, align 8, !tbaa !29
  %171 = load i64, ptr %7, align 8, !tbaa !28
  %172 = load ptr, ptr %3, align 8, !tbaa !11
  %173 = getelementptr inbounds nuw %struct.ARKodeMemRec, ptr %172, i32 0, i32 115
  %174 = load i64, ptr %173, align 8, !tbaa !36
  %175 = add nsw i64 %174, %171
  store i64 %175, ptr %173, align 8, !tbaa !36
  br label %176

176:                                              ; preds = %165, %152
  store i32 0, ptr %2, align 4
  store i32 1, ptr %10, align 4
  br label %177

177:                                              ; preds = %176, %150, %132, %15
  call void @llvm.lifetime.end.p0(i64 4, ptr %9) #4
  call void @llvm.lifetime.end.p0(i64 8, ptr %8) #4
  call void @llvm.lifetime.end.p0(i64 8, ptr %7) #4
  call void @llvm.lifetime.end.p0(i64 8, ptr %6) #4
  call void @llvm.lifetime.end.p0(i64 8, ptr %5) #4
  call void @llvm.lifetime.end.p0(i64 8, ptr %4) #4
  %178 = load i32, ptr %2, align 4
  ret i32 %178
}