; Function Attrs: nounwind uwtable
define i32 @mriStep_SetDefaults(ptr noundef %0) local_unnamed_addr #0 {
  %2 = alloca ptr, align 8
  %3 = alloca i64, align 8
  %4 = alloca i64, align 8
  %5 = alloca i64, align 8
  %6 = alloca i64, align 8
  call void @llvm.lifetime.start.p0(i64 8, ptr nonnull %2) #5
  call void @llvm.lifetime.start.p0(i64 8, ptr nonnull %3) #5
  call void @llvm.lifetime.start.p0(i64 8, ptr nonnull %4) #5
  call void @llvm.lifetime.start.p0(i64 8, ptr nonnull %5) #5
  call void @llvm.lifetime.start.p0(i64 8, ptr nonnull %6) #5
  %7 = call i32 @mriStep_AccessStepMem(ptr noundef %0, ptr noundef nonnull @__func__.mriStep_SetDefaults, ptr noundef nonnull %2) #5
  %.not = icmp eq i32 %7, 0
  br i1 %.not, label %8, label %100

8:                                                ; preds = %1
  %9 = load ptr, ptr %2, align 8, !tbaa !8
  %10 = getelementptr inbounds nuw i8, ptr %9, i64 80
  store i32 3, ptr %10, align 8, !tbaa !22
  %11 = getelementptr inbounds nuw i8, ptr %9, i64 84
  store i32 0, ptr %11, align 4, !tbaa !23
  %12 = getelementptr inbounds nuw i8, ptr %9, i64 224
  store i32 0, ptr %12, align 8, !tbaa !52
  %13 = getelementptr inbounds nuw i8, ptr %9, i64 16
  store i32 0, ptr %13, align 8, !tbaa !53
  %14 = getelementptr inbounds nuw i8, ptr %9, i64 20
  store i32 1, ptr %14, align 4, !tbaa !54
  %15 = getelementptr inbounds nuw i8, ptr %9, i64 32
  store i32 0, ptr %15, align 8, !tbaa !55
  %16 = getelementptr inbounds nuw i8, ptr %9, i64 296
  store i32 3, ptr %16, align 8, !tbaa !56
  %17 = getelementptr inbounds nuw i8, ptr %9, i64 272
  store double 1.000000e-01, ptr %17, align 8, !tbaa !57
  %18 = getelementptr inbounds nuw i8, ptr %9, i64 232
  store double 3.000000e-01, ptr %18, align 8, !tbaa !58
  %19 = getelementptr inbounds nuw i8, ptr %9, i64 240
  store double 2.300000e+00, ptr %19, align 8, !tbaa !59
  %20 = getelementptr inbounds nuw i8, ptr %9, i64 216
  store double 2.000000e-01, ptr %20, align 8, !tbaa !60
  %21 = getelementptr inbounds nuw i8, ptr %9, i64 280
  store i32 20, ptr %21, align 8, !tbaa !61
  %22 = getelementptr inbounds nuw i8, ptr %9, i64 88
  store i32 0, ptr %22, align 8, !tbaa !10
  %23 = getelementptr inbounds nuw i8, ptr %9, i64 160
  store i32 0, ptr %23, align 8, !tbaa !62
  %24 = getelementptr inbounds nuw i8, ptr %9, i64 304
  store i32 0, ptr %24, align 8, !tbaa !63
  %25 = getelementptr inbounds nuw i8, ptr %9, i64 300
  store i32 0, ptr %25, align 4, !tbaa !64
  %26 = getelementptr inbounds nuw i8, ptr %9, i64 312
  store ptr null, ptr %26, align 8, !tbaa !65
  %27 = getelementptr inbounds nuw i8, ptr %9, i64 168
  %28 = load ptr, ptr %27, align 8, !tbaa !66
  %.not26 = icmp eq ptr %28, null
  br i1 %.not26, label %34, label %29

29:                                               ; preds = %8
  %30 = getelementptr inbounds nuw i8, ptr %9, i64 176
  %31 = load i32, ptr %30, align 8, !tbaa !67
  %.not27 = icmp eq i32 %31, 0
  br i1 %.not27, label %34, label %32

32:                                               ; preds = %29
  %33 = call i32 @SUNNonlinSolFree(ptr noundef nonnull %28) #5
  %.pre = load ptr, ptr %2, align 8, !tbaa !8
  br label %34

34:                                               ; preds = %32, %29, %8
  %35 = phi ptr [ %.pre, %32 ], [ %9, %29 ], [ %9, %8 ]
  %36 = getelementptr inbounds nuw i8, ptr %35, i64 168
  store ptr null, ptr %36, align 8, !tbaa !66
  %37 = getelementptr inbounds nuw i8, ptr %35, i64 72
  %38 = load ptr, ptr %37, align 8, !tbaa !24
  %.not28 = icmp eq ptr %38, null
  br i1 %.not28, label %51, label %39

39:                                               ; preds = %34
  call void @MRIStepCoupling_Space(ptr noundef nonnull %38, ptr noundef nonnull %4, ptr noundef nonnull %3) #5
  %40 = load i64, ptr %3, align 8, !tbaa !25
  %41 = getelementptr inbounds nuw i8, ptr %0, i64 872
  %42 = load i64, ptr %41, align 8, !tbaa !33
  %43 = sub nsw i64 %42, %40
  store i64 %43, ptr %41, align 8, !tbaa !33
  %44 = load i64, ptr %4, align 8, !tbaa !25
  %45 = getelementptr inbounds nuw i8, ptr %0, i64 880
  %46 = load i64, ptr %45, align 8, !tbaa !26
  %47 = sub nsw i64 %46, %44
  store i64 %47, ptr %45, align 8, !tbaa !26
  %48 = load ptr, ptr %2, align 8, !tbaa !8
  %49 = getelementptr inbounds nuw i8, ptr %48, i64 72
  %50 = load ptr, ptr %49, align 8, !tbaa !24
  call void @MRIStepCoupling_Free(ptr noundef %50) #5
  %.pre31 = load ptr, ptr %2, align 8, !tbaa !8
  br label %51

51:                                               ; preds = %39, %34
  %52 = phi ptr [ %.pre31, %39 ], [ %35, %34 ]
  %53 = getelementptr inbounds nuw i8, ptr %52, i64 72
  store ptr null, ptr %53, align 8, !tbaa !24
  %54 = getelementptr inbounds nuw i8, ptr %0, i64 776
  %55 = load ptr, ptr %54, align 8, !tbaa !68
  %56 = getelementptr inbounds nuw i8, ptr %55, i64 112
  %57 = load i32, ptr %56, align 8, !tbaa !69
  %.not29 = icmp eq i32 %57, 0
  br i1 %.not29, label %80, label %58

58:                                               ; preds = %51
  %59 = getelementptr inbounds nuw i8, ptr %55, i64 104
  %60 = load ptr, ptr %59, align 8, !tbaa !72
  %61 = call i32 @SUNAdaptController_Space(ptr noundef %60, ptr noundef nonnull %5, ptr noundef nonnull %6) #5
  %62 = icmp eq i32 %61, 0
  br i1 %62, label %63, label %72

63:                                               ; preds = %58
  %64 = load i64, ptr %6, align 8, !tbaa !25
  %65 = getelementptr inbounds nuw i8, ptr %0, i64 880
  %66 = load i64, ptr %65, align 8, !tbaa !26
  %67 = sub nsw i64 %66, %64
  store i64 %67, ptr %65, align 8, !tbaa !26
  %68 = load i64, ptr %5, align 8, !tbaa !25
  %69 = getelementptr inbounds nuw i8, ptr %0, i64 872
  %70 = load i64, ptr %69, align 8, !tbaa !33
  %71 = sub nsw i64 %70, %68
  store i64 %71, ptr %69, align 8, !tbaa !33
  br label %72

72:                                               ; preds = %63, %58
  %73 = load ptr, ptr %54, align 8, !tbaa !68
  %74 = getelementptr inbounds nuw i8, ptr %73, i64 104
  %75 = load ptr, ptr %74, align 8, !tbaa !72
  %76 = call i32 @SUNAdaptController_Destroy(ptr noundef %75) #5
  %77 = load ptr, ptr %54, align 8, !tbaa !68
  %78 = getelementptr inbounds nuw i8, ptr %77, i64 112
  store i32 0, ptr %78, align 8, !tbaa !69
  %.not30 = icmp eq i32 %76, 0
  br i1 %.not30, label %80, label %79

79:                                               ; preds = %72
  call void (ptr, i32, i32, ptr, ptr, ptr, ...) @arkProcessError(ptr noundef nonnull %0, i32 noundef -20, i32 noundef 367, ptr noundef nonnull @__func__.mriStep_SetDefaults, ptr noundef nonnull @.str, ptr noundef nonnull @.str.4) #5
  br label %100

80:                                               ; preds = %72, %51
  %81 = load ptr, ptr %0, align 8, !tbaa !73
  %82 = call ptr @SUNAdaptController_I(ptr noundef %81) #5
  %83 = load ptr, ptr %54, align 8, !tbaa !68
  %84 = getelementptr inbounds nuw i8, ptr %83, i64 104
  store ptr %82, ptr %84, align 8, !tbaa !72
  %85 = icmp eq ptr %82, null
  br i1 %85, label %86, label %87

86:                                               ; preds = %80
  call void (ptr, i32, i32, ptr, ptr, ptr, ...) @arkProcessError(ptr noundef nonnull %0, i32 noundef -20, i32 noundef 375, ptr noundef nonnull @__func__.mriStep_SetDefaults, ptr noundef nonnull @.str, ptr noundef nonnull @.str.5) #5
  br label %100

87:                                               ; preds = %80
  %88 = getelementptr inbounds nuw i8, ptr %83, i64 112
  store i32 1, ptr %88, align 8, !tbaa !69
  %89 = call i32 @SUNAdaptController_Space(ptr noundef nonnull %82, ptr noundef nonnull %5, ptr noundef nonnull %6) #5
  %90 = icmp eq i32 %89, 0
  br i1 %90, label %91, label %100

91:                                               ; preds = %87
  %92 = load i64, ptr %6, align 8, !tbaa !25
  %93 = getelementptr inbounds nuw i8, ptr %0, i64 880
  %94 = load i64, ptr %93, align 8, !tbaa !26
  %95 = add nsw i64 %94, %92
  store i64 %95, ptr %93, align 8, !tbaa !26
  %96 = load i64, ptr %5, align 8, !tbaa !25
  %97 = getelementptr inbounds nuw i8, ptr %0, i64 872
  %98 = load i64, ptr %97, align 8, !tbaa !33
  %99 = add nsw i64 %98, %96
  store i64 %99, ptr %97, align 8, !tbaa !33
  br label %100

100:                                              ; preds = %87, %91, %1, %86, %79
  %.0 = phi i32 [ -20, %79 ], [ -20, %86 ], [ %7, %1 ], [ 0, %91 ], [ 0, %87 ]
  call void @llvm.lifetime.end.p0(i64 8, ptr nonnull %6) #5
  call void @llvm.lifetime.end.p0(i64 8, ptr nonnull %5) #5
  call void @llvm.lifetime.end.p0(i64 8, ptr nonnull %4) #5
  call void @llvm.lifetime.end.p0(i64 8, ptr nonnull %3) #5
  call void @llvm.lifetime.end.p0(i64 8, ptr nonnull %2) #5
  ret i32 %.0
}